; Function Attrs: mustprogress uwtable
define noundef signext range(i8 0, 2) i8 @_ZN6icu_7711ICU_Utility9parseCharERKNS_13UnicodeStringERiDs(ptr noundef nonnull align 8 dereferenceable(64) %0, ptr noundef nonnull align 4 captures(none) dereferenceable(4) %1, i16 noundef zeroext %2) local_unnamed_addr #1 align 2 {
  %4 = load i32, ptr %1, align 4, !tbaa !12
  %5 = getelementptr inbounds nuw i8, ptr %0, i64 8
  %6 = load i16, ptr %5, align 8, !tbaa !21
  %7 = and i16 %6, 17
  %.not.i.i = icmp eq i16 %7, 0
  br i1 %.not.i.i, label %8, label %_ZN6icu_7711ICU_Utility14skipWhitespaceERKNS_13UnicodeStringERia.exit

8:                                                ; preds = %3
  %9 = and i16 %6, 2
  %.not2.i.i = icmp eq i16 %9, 0
  br i1 %.not2.i.i, label %12, label %10

10:                                               ; preds = %8
  %11 = getelementptr inbounds nuw i8, ptr %0, i64 10
  br label %_ZN6icu_7711ICU_Utility14skipWhitespaceERKNS_13UnicodeStringERia.exit

12:                                               ; preds = %8
  %13 = getelementptr inbounds nuw i8, ptr %0, i64 24
  %14 = load ptr, ptr %13, align 8, !tbaa !21
  br label %_ZN6icu_7711ICU_Utility14skipWhitespaceERKNS_13UnicodeStringERia.exit

_ZN6icu_7711ICU_Utility14skipWhitespaceERKNS_13UnicodeStringERia.exit: ; preds = %3, %10, %12
  %.0.i.i = phi ptr [ %11, %10 ], [ %14, %12 ], [ null, %3 ]
  %15 = sext i32 %4 to i64
  %16 = getelementptr inbounds i16, ptr %.0.i.i, i64 %15
  %17 = icmp slt i16 %6, 0
  %18 = ashr i16 %6, 5
  %19 = sext i16 %18 to i32
  %20 = getelementptr inbounds nuw i8, ptr %0, i64 12
  %21 = load i32, ptr %20, align 4
  %22 = select i1 %17, i32 %21, i32 %19
  %23 = sub nsw i32 %22, %4
  %24 = tail call noundef ptr @_ZN6icu_7712PatternProps14skipWhiteSpaceEPKDsi(ptr noundef %16, i32 noundef %23)
  %25 = ptrtoint ptr %24 to i64
  %26 = ptrtoint ptr %.0.i.i to i64
  %27 = sub i64 %25, %26
  %28 = lshr exact i64 %27, 1
  %29 = trunc i64 %28 to i32
  store i32 %29, ptr %1, align 4, !tbaa !12
  %30 = load i16, ptr %5, align 8, !tbaa !21
  %31 = icmp slt i16 %30, 0
  %32 = ashr i16 %30, 5
  %33 = sext i16 %32 to i32
  %34 = load i32, ptr %20, align 4
  %35 = select i1 %31, i32 %34, i32 %33
  %36 = icmp eq i32 %35, %29
  br i1 %36, label %49, label %37

37:                                               ; preds = %_ZN6icu_7711ICU_Utility14skipWhitespaceERKNS_13UnicodeStringERia.exit
  %38 = icmp ugt i32 %35, %29
  br i1 %38, label %39, label %_ZNK6icu_7713UnicodeString6charAtEi.exit

39:                                               ; preds = %37
  %40 = and i16 %30, 2
  %.not.i.i.i = icmp eq i16 %40, 0
  %41 = getelementptr inbounds nuw i8, ptr %0, i64 10
  %42 = getelementptr inbounds nuw i8, ptr %0, i64 24
  %43 = load ptr, ptr %42, align 8
  %44 = select i1 %.not.i.i.i, ptr %43, ptr %41
  %sext = shl i64 %27, 31
  %45 = ashr i64 %sext, 32
  %46 = getelementptr inbounds i16, ptr %44, i64 %45
  %47 = load i16, ptr %46, align 2, !tbaa !15
  br label %_ZNK6icu_7713UnicodeString6charAtEi.exit

_ZNK6icu_7713UnicodeString6charAtEi.exit:         ; preds = %37, %39
  %.0.i.i11 = phi i16 [ %47, %39 ], [ -1, %37 ]
  %.not = icmp eq i16 %.0.i.i11, %2
  %48 = add nsw i32 %29, 1
  %spec.select = select i1 %.not, i32 %48, i32 %4
  %spec.select12 = zext i1 %.not to i8
  br label %49

49:                                               ; preds = %_ZNK6icu_7713UnicodeString6charAtEi.exit, %_ZN6icu_7711ICU_Utility14skipWhitespaceERKNS_13UnicodeStringERia.exit
  %storemerge = phi i32 [ %4, %_ZN6icu_7711ICU_Utility14skipWhitespaceERKNS_13UnicodeStringERia.exit ], [ %spec.select, %_ZNK6icu_7713UnicodeString6charAtEi.exit ]
  %.0 = phi i8 [ 0, %_ZN6icu_7711ICU_Utility14skipWhitespaceERKNS_13UnicodeStringERia.exit ], [ %spec.select12, %_ZNK6icu_7713UnicodeString6charAtEi.exit ]
  store i32 %storemerge, ptr %1, align 4, !tbaa !12
  ret i8 %.0
}